target datalayout = "e-m:e-p270:32:32-p271:32:32-p272:64:64-i64:64-i128:128-f80:128-n8:16:32:64-S128"
target triple = "x86_64-pc-linux-gnu"

%struct.FuncState = type { ptr, ptr, ptr, ptr, ptr, ptr, i32, i32, i32, i32, i32, i32, i16, i8, [60 x %struct.upvaldesc], [200 x i16] }
%struct.upvaldesc = type { i8, i8 }
%struct.Proto = type { ptr, i8, i8, ptr, ptr, ptr, ptr, ptr, ptr, ptr, i32, i32, i32, i32, i32, i32, i32, i32, ptr, i8, i8, i8, i8 }

@.str.1 = private unnamed_addr constant [27 x i8] c"control structure too long\00", align 1

; Function Attrs: nounwind uwtable
define internal void @fixjump(ptr noundef %0, i32 noundef %1, i32 noundef %2) #0 {
  %4 = alloca ptr, align 8
  %5 = alloca i32, align 4
  %6 = alloca i32, align 4
  %7 = alloca ptr, align 8
  %8 = alloca i32, align 4
  store ptr %0, ptr %4, align 8, !tbaa !4
  store i32 %1, ptr %5, align 4, !tbaa !9
  store i32 %2, ptr %6, align 4, !tbaa !9
  call void @llvm.lifetime.start.p0(i64 8, ptr %7) #6
  %9 = load ptr, ptr %4, align 8, !tbaa !4
  %10 = getelementptr inbounds nuw %struct.FuncState, ptr %9, i32 0, i32 0
  %11 = load ptr, ptr %10, align 8, !tbaa !21
  %12 = getelementptr inbounds nuw %struct.Proto, ptr %11, i32 0, i32 4
  %13 = load ptr, ptr %12, align 8, !tbaa !22
  %14 = load i32, ptr %5, align 4, !tbaa !9
  %15 = sext i32 %14 to i64
  %16 = getelementptr inbounds i32, ptr %13, i64 %15
  store ptr %16, ptr %7, align 8, !tbaa !31
  call void @llvm.lifetime.start.p0(i64 4, ptr %8) #6
  %17 = load i32, ptr %6, align 4, !tbaa !9
  %18 = load i32, ptr %5, align 4, !tbaa !9
  %19 = add nsw i32 %18, 1
  %20 = sub nsw i32 %17, %19
  store i32 %20, ptr %8, align 4, !tbaa !9
  %21 = load i32, ptr %8, align 4, !tbaa !9
  %22 = call i32 @llvm.abs.i32(i32 %21, i1 true)
  %23 = icmp sgt i32 %22, 131071
  br i1 %23, label %24, label %28

24:                                               ; preds = %3
  %25 = load ptr, ptr %4, align 8, !tbaa !4
  %26 = getelementptr inbounds nuw %struct.FuncState, ptr %25, i32 0, i32 3
  %27 = load ptr, ptr %26, align 8, !tbaa !32
  call void @luaX_syntaxerror(ptr noundef %27, ptr noundef @.str.1)
  br label %28

28:                                               ; preds = %24, %3
  %29 = load ptr, ptr %7, align 8, !tbaa !31
  %30 = load i32, ptr %29, align 4, !tbaa !9
  %31 = and i32 %30, 16383
  %32 = load i32, ptr %8, align 4, !tbaa !9
  %33 = add nsw i32 %32, 131071
  %34 = shl i32 %33, 14
  %35 = and i32 %34, -16384
  %36 = or i32 %31, %35
  %37 = load ptr, ptr %7, align 8, !tbaa !31
  store i32 %36, ptr %37, align 4, !tbaa !9
  call void @llvm.lifetime.end.p0(i64 4, ptr %8) #6
  call void @llvm.lifetime.end.p0(i64 8, ptr %7) #6
  ret void
}

; Function Attrs: nounwind uwtable
define internal i32 @getjump(ptr noundef %0, i32 noundef %1) #0 {
  %3 = alloca i32, align 4
  %4 = alloca ptr, align 8
  %5 = alloca i32, align 4
  %6 = alloca i32, align 4
  %7 = alloca i32, align 4
  store ptr %0, ptr %4, align 8, !tbaa !4
  store i32 %1, ptr %5, align 4, !tbaa !9
  call void @llvm.lifetime.start.p0(i64 4, ptr %6) #6
  %8 = load ptr, ptr %4, align 8, !tbaa !4
  %9 = getelementptr inbounds nuw %struct.FuncState, ptr %8, i32 0, i32 0
  %10 = load ptr, ptr %9, align 8, !tbaa !21
  %11 = getelementptr inbounds nuw %struct.Proto, ptr %10, i32 0, i32 4
  %12 = load ptr, ptr %11, align 8, !tbaa !22
  %13 = load i32, ptr %5, align 4, !tbaa !9
  %14 = sext i32 %13 to i64
  %15 = getelementptr inbounds i32, ptr %12, i64 %14
  %16 = load i32, ptr %15, align 4, !tbaa !9
  %17 = lshr i32 %16, 14
  %18 = and i32 %17, 262143
  %19 = sub nsw i32 %18, 131071
  store i32 %19, ptr %6, align 4, !tbaa !9
  %20 = load i32, ptr %6, align 4, !tbaa !9
  %21 = icmp eq i32 %20, -1
  br i1 %21, label %22, label %23

22:                                               ; preds = %2
  store i32 -1, ptr %3, align 4
  store i32 1, ptr %7, align 4
  br label %28

23:                                               ; preds = %2
  %24 = load i32, ptr %5, align 4, !tbaa !9
  %25 = add nsw i32 %24, 1
  %26 = load i32, ptr %6, align 4, !tbaa !9
  %27 = add nsw i32 %25, %26
  store i32 %27, ptr %3, align 4
  store i32 1, ptr %7, align 4
  br label %28

28:                                               ; preds = %23, %22
  call void @llvm.lifetime.end.p0(i64 4, ptr %6) #6
  %29 = load i32, ptr %3, align 4
  ret i32 %29
}

; Function Attrs: nounwind uwtable
define hidden void @luaK_concat(ptr noundef %0, ptr noundef %1, i32 noundef %2) #0 {
  %4 = alloca ptr, align 8
  %5 = alloca ptr, align 8
  %6 = alloca i32, align 4
  %7 = alloca i32, align 4
  %8 = alloca i32, align 4
  store ptr %0, ptr %4, align 8, !tbaa !4
  store ptr %1, ptr %5, align 8, !tbaa !31
  store i32 %2, ptr %6, align 4, !tbaa !9
  %9 = load i32, ptr %6, align 4, !tbaa !9
  %10 = icmp eq i32 %9, -1
  br i1 %10, label %11, label %12

11:                                               ; preds = %3
  br label %34

12:                                               ; preds = %3
  %13 = load ptr, ptr %5, align 8, !tbaa !31
  %14 = load i32, ptr %13, align 4, !tbaa !9
  %15 = icmp eq i32 %14, -1
  br i1 %15, label %16, label %19

16:                                               ; preds = %12
  %17 = load i32, ptr %6, align 4, !tbaa !9
  %18 = load ptr, ptr %5, align 8, !tbaa !31
  store i32 %17, ptr %18, align 4, !tbaa !9
  br label %33

19:                                               ; preds = %12
  call void @llvm.lifetime.start.p0(i64 4, ptr %7) #6
  %20 = load ptr, ptr %5, align 8, !tbaa !31
  %21 = load i32, ptr %20, align 4, !tbaa !9
  store i32 %21, ptr %7, align 4, !tbaa !9
  call void @llvm.lifetime.start.p0(i64 4, ptr %8) #6
  br label %22

22:                                               ; preds = %27, %19
  %23 = load ptr, ptr %4, align 8, !tbaa !4
  %24 = load i32, ptr %7, align 4, !tbaa !9
  %25 = call i32 @getjump(ptr noundef %23, i32 noundef %24)
  store i32 %25, ptr %8, align 4, !tbaa !9
  %26 = icmp ne i32 %25, -1
  br i1 %26, label %27, label %29

27:                                               ; preds = %22
  %28 = load i32, ptr %8, align 4, !tbaa !9
  store i32 %28, ptr %7, align 4, !tbaa !9
  br label %22, !llvm.loop !39

29:                                               ; preds = %22
  %30 = load ptr, ptr %4, align 8, !tbaa !4
  %31 = load i32, ptr %7, align 4, !tbaa !9
  %32 = load i32, ptr %6, align 4, !tbaa !9
  call void @fixjump(ptr noundef %30, i32 noundef %31, i32 noundef %32)
  call void @llvm.lifetime.end.p0(i64 4, ptr %8) #6
  call void @llvm.lifetime.end.p0(i64 4, ptr %7) #6
  br label %33

33:                                               ; preds = %29, %16
  br label %34

34:                                               ; preds = %11, %33
  ret void
}

; Function Attrs: nounwind uwtable
define hidden i32 @luaK_getlabel(ptr noundef %0) #0 {
  %2 = alloca ptr, align 8
  store ptr %0, ptr %2, align 8, !tbaa !4
  %3 = load ptr, ptr %2, align 8, !tbaa !4
  %4 = getelementptr inbounds nuw %struct.FuncState, ptr %3, i32 0, i32 6
  %5 = load i32, ptr %4, align 8, !tbaa !11
  %6 = load ptr, ptr %2, align 8, !tbaa !4
  %7 = getelementptr inbounds nuw %struct.FuncState, ptr %6, i32 0, i32 7
  store i32 %5, ptr %7, align 4, !tbaa !19
  %8 = load ptr, ptr %2, align 8, !tbaa !4
  %9 = getelementptr inbounds nuw %struct.FuncState, ptr %8, i32 0, i32 6
  %10 = load i32, ptr %9, align 8, !tbaa !11
  ret i32 %10
}

; Function Attrs: nounwind uwtable
define hidden void @luaK_patchtohere(ptr noundef %0, i32 noundef %1) #0 {
  %3 = alloca ptr, align 8
  %4 = alloca i32, align 4
  store ptr %0, ptr %3, align 8, !tbaa !4
  store i32 %1, ptr %4, align 4, !tbaa !9
  %5 = load ptr, ptr %3, align 8, !tbaa !4
  %6 = call i32 @luaK_getlabel(ptr noundef %5)
  %7 = load ptr, ptr %3, align 8, !tbaa !4
  %8 = load ptr, ptr %3, align 8, !tbaa !4
  %9 = getelementptr inbounds nuw %struct.FuncState, ptr %8, i32 0, i32 8
  %10 = load i32, ptr %4, align 4, !tbaa !9
  call void @luaK_concat(ptr noundef %7, ptr noundef %9, i32 noundef %10)
  ret void
}