; Function Attrs: nounwind uwtable
define hidden void @luaK_patchtohere(ptr noundef captures(none) initializes((52, 56)) %0, i32 noundef %1) local_unnamed_addr #0 {
  %3 = getelementptr inbounds nuw i8, ptr %0, i64 48
  %4 = load i32, ptr %3, align 8, !tbaa !4
  %5 = getelementptr inbounds nuw i8, ptr %0, i64 52
  store i32 %4, ptr %5, align 4, !tbaa !17
  %6 = getelementptr inbounds nuw i8, ptr %0, i64 56
  %7 = icmp eq i32 %1, -1
  br i1 %7, label %luaK_concat.exit, label %8

8:                                                ; preds = %2
  %9 = load i32, ptr %6, align 4, !tbaa !29
  %10 = icmp eq i32 %9, -1
  br i1 %10, label %12, label %.preheader.i

.preheader.i:                                     ; preds = %8
  %.val.i = load ptr, ptr %0, align 8, !tbaa !19
  %11 = getelementptr i8, ptr %.val.i, i64 24
  %.val.val.i = load ptr, ptr %11, align 8, !tbaa !20
  br label %13

12:                                               ; preds = %8
  store i32 %1, ptr %6, align 4, !tbaa !29
  br label %luaK_concat.exit

13:                                               ; preds = %13, %.preheader.i
  %.0.i = phi i32 [ %21, %13 ], [ %9, %.preheader.i ]
  %14 = sext i32 %.0.i to i64
  %15 = getelementptr inbounds i32, ptr %.val.val.i, i64 %14
  %16 = load i32, ptr %15, align 4, !tbaa !29
  %17 = lshr i32 %16, 14
  %18 = add nsw i32 %17, -131071
  %19 = icmp eq i32 %18, -1
  %20 = add nuw nsw i32 %.0.i, 1
  %21 = add nsw i32 %20, %18
  %.not13.i = icmp eq i32 %21, -1
  %.not.i = select i1 %19, i1 true, i1 %.not13.i
  br i1 %.not.i, label %22, label %13, !llvm.loop !37

22:                                               ; preds = %13
  %23 = getelementptr inbounds i32, ptr %.val.val.i, i64 %14
  %.neg.i.i = xor i32 %.0.i, -1
  %24 = add i32 %1, %.neg.i.i
  %25 = tail call i32 @llvm.abs.i32(i32 %24, i1 true)
  %26 = icmp samesign ugt i32 %25, 131071
  br i1 %26, label %27, label %fixjump.exit.i

27:                                               ; preds = %22
  %28 = getelementptr inbounds nuw i8, ptr %0, i64 24
  %29 = load ptr, ptr %28, align 8, !tbaa !30
  tail call void @luaX_syntaxerror(ptr noundef %29, ptr noundef nonnull @.str.1) #8
  %.pre.i = load i32, ptr %23, align 4, !tbaa !29
  br label %fixjump.exit.i

fixjump.exit.i:                                   ; preds = %27, %22
  %30 = phi i32 [ %16, %22 ], [ %.pre.i, %27 ]
  %31 = and i32 %30, 16383
  %32 = shl i32 %24, 14
  %33 = add i32 %32, 2147467264
  %34 = or disjoint i32 %31, %33
  store i32 %34, ptr %23, align 4, !tbaa !29
  br label %luaK_concat.exit

luaK_concat.exit:                                 ; preds = %2, %12, %fixjump.exit.i
  ret void
}